; Function Attrs: nounwind uwtable
define internal void @sbuf_appendf(ptr noundef captures(none) %0, ptr noundef %1, ...) unnamed_addr #0 {
  %3 = alloca [1 x %struct.__va_list_tag], align 16
  call void @llvm.lifetime.start.p0(i64 24, ptr nonnull %3) #32
  call void @llvm.va_start.p0(ptr nonnull %3)
  call fastcc void @sbuf_append_vprintf(ptr noundef %0, ptr noundef %1, ptr noundef nonnull %3)
  call void @llvm.va_end.p0(ptr nonnull %3)
  call void @llvm.lifetime.end.p0(i64 24, ptr nonnull %3) #32
  ret void
}